; Function Attrs: mustprogress uwtable
define hidden void @_ZN4cvc58internal4prop18TheoryPreregistrarC2ERNS0_3EnvEPNS0_12TheoryEngineEPNS1_14CDCLTSatSolverEPNS1_9CnfStreamE(ptr noundef nonnull align 8 dereferenceable(56) %this, ptr noundef nonnull align 8 dereferenceable(576) %env, ptr noundef %te, ptr nocapture readnone %ss, ptr nocapture readnone %cs) unnamed_addr #3 align 2 personality ptr @__gxx_personality_v0 {
entry:
  tail call void @_ZN4cvc58internal6EnvObjC2ERNS0_3EnvE(ptr noundef nonnull align 8 dereferenceable(16) %this, ptr noundef nonnull align 8 dereferenceable(576) %env)
  store ptr getelementptr inbounds ({ [4 x ptr] }, ptr @_ZTVN4cvc58internal4prop18TheoryPreregistrarE, i64 0, i32 0, i64 2), ptr %this, align 8
  %d_theoryEngine = getelementptr inbounds i8, ptr %this, i64 16
  store ptr %te, ptr %d_theoryEngine, align 8
  %d_sat_literals = getelementptr inbounds i8, ptr %this, i64 24
  tail call void @llvm.memset.p0.i64(ptr noundef nonnull align 8 dereferenceable(24) %d_sat_literals, i8 0, i64 24, i1 false)
  %call = invoke noalias noundef nonnull dereferenceable(32) ptr @_Znwm(i64 noundef 32) #13
          to label %invoke.cont unwind label %lpad

invoke.cont:                                      ; preds = %entry
  %call.i3 = invoke noundef ptr @_ZN4cvc58internal3Env14getUserContextEv(ptr noundef nonnull align 8 dereferenceable(576) %env)
          to label %call.i.noexc unwind label %lpad2

call.i.noexc:                                     ; preds = %invoke.cont
  invoke void @_ZN4cvc57context16ContextNotifyObjC2EPNS0_7ContextEb(ptr noundef nonnull align 8 dereferenceable(24) %call, ptr noundef %call.i3, i1 noundef zeroext false)
          to label %invoke.cont3 unwind label %lpad2

invoke.cont3:                                     ; preds = %call.i.noexc
  store ptr getelementptr inbounds ({ [5 x ptr] }, ptr @_ZTVN4cvc58internal4prop24TheoryPreregistrarNotifyE, i64 0, i32 0, i64 2), ptr %call, align 8
  %d_prr.i = getelementptr inbounds i8, ptr %call, i64 24
  store ptr %this, ptr %d_prr.i, align 8
  %d_notify = getelementptr inbounds i8, ptr %this, i64 48
  store ptr %call, ptr %d_notify, align 8
  ret void

lpad:                                             ; preds = %entry
  %0 = landingpad { ptr, i32 }
          cleanup
  br label %ehcleanup

lpad2:                                            ; preds = %call.i.noexc, %invoke.cont
  %1 = landingpad { ptr, i32 }
          cleanup
  tail call void @_ZdlPv(ptr noundef nonnull %call) #14
  br label %ehcleanup

ehcleanup:                                        ; preds = %lpad2, %lpad
  %.pn = phi { ptr, i32 } [ %1, %lpad2 ], [ %0, %lpad ]
  tail call void @_ZNSt6vectorISt4pairIN4cvc58internal12NodeTemplateILb1EEEjESaIS5_EED2Ev(ptr noundef nonnull align 8 dereferenceable(24) %d_sat_literals) #15
  resume { ptr, i32 } %.pn
}